; Function Attrs: nofree nounwind uwtable
define internal noundef i32 @FileInStream_Seek(ptr noundef readonly captures(none) %0, ptr noundef captures(none) %1, i32 noundef %2) #1 {
  %switch.i = icmp ult i32 %2, 3
  br i1 %switch.i, label %4, label %File_Seek.exit

4:                                                ; preds = %3
  %5 = getelementptr inbounds nuw i8, ptr %0, i64 24
  %6 = load ptr, ptr %5, align 8, !tbaa !3
  %7 = load i64, ptr %1, align 8, !tbaa !14
  %8 = tail call i32 @fseek(ptr noundef %6, i64 noundef %7, i32 noundef %2)
  %9 = load ptr, ptr %5, align 8, !tbaa !3
  %10 = tail call i64 @ftell(ptr noundef %9)
  store i64 %10, ptr %1, align 8, !tbaa !14
  br label %File_Seek.exit

File_Seek.exit:                                   ; preds = %3, %4
  %.0.i = phi i32 [ %8, %4 ], [ 1, %3 ]
  ret i32 %.0.i
}